(dp1
S'Z:/shotgunEvents/src/plugins'
p2
(dp3
S'calculateCutDuration'
p4
(I429666
(dp5
tp6
sS'setTaskName'
p7
(I429666
(dp8
tp9
sS'sendEmailWhenAssign'
p10
(I429666
(dp11
tp12
sS'calculateShotName'
p13
(I429666
(dp14
tp15
ss.